target datalayout = "e-m:e-p270:32:32-p271:32:32-p272:64:64-i64:64-i128:128-f80:128-n8:16:32:64-S128"
target triple = "x86_64-pc-linux-gnu"

@crc32_x86_simd_ptr = internal global ptr @crc32_x86_simd_update_default, align 8
@__cpu_model = external dso_local global { i32, i32, i32, [1 x i32] }

; Function Attrs: nounwind uwtable
define internal i32 @zend_cpu_supports_pclmul() #2 {
  %1 = call i32 @zend_cpu_supports(i32 noundef 2)
  ret i32 %1
}

; Function Attrs: nounwind uwtable
define internal i32 @zend_cpu_supports_sse42() #2 {
  call void @__cpu_indicator_init()
  %1 = load i32, ptr getelementptr inbounds ({ i32, i32, i32, [1 x i32] }, ptr @__cpu_model, i32 0, i32 3, i32 0), align 4
  %2 = and i32 %1, 256
  %3 = icmp eq i32 %2, 256
  %4 = and i1 true, %3
  %5 = zext i1 %4 to i32
  ret i32 %5
}

; Function Attrs: nounwind uwtable
define hidden i32 @zm_startup_crc32_x86_intrin(i32 noundef %0, i32 noundef %1) #2 {
  %3 = alloca i32, align 4
  %4 = alloca i32, align 4
  store i32 %0, ptr %3, align 4
  store i32 %1, ptr %4, align 4
  %5 = call i32 @zend_cpu_supports_sse42()
  %6 = icmp ne i32 %5, 0
  br i1 %6, label %7, label %11

7:                                                ; preds = %2
  %8 = call i32 @zend_cpu_supports_pclmul()
  %9 = icmp ne i32 %8, 0
  br i1 %9, label %10, label %11

10:                                               ; preds = %7
  store ptr @crc32_sse42_pclmul_update, ptr @crc32_x86_simd_ptr, align 8
  br label %11

11:                                               ; preds = %10, %7, %2
  ret i32 0
}