; Function Attrs: nounwind uwtable
define hidden noundef i32 @zm_startup_crc32_x86_intrin(i32 noundef %0, i32 noundef %1) local_unnamed_addr #3 {
  tail call void @__cpu_indicator_init() #6
  %3 = load i32, ptr getelementptr inbounds ({ i32, i32, i32, [1 x i32] }, ptr @__cpu_model, i64 0, i32 3, i64 0), align 4
  %4 = and i32 %3, 256
  %.not = icmp eq i32 %4, 0
  br i1 %.not, label %8, label %5

5:                                                ; preds = %2
  %6 = tail call i32 @zend_cpu_supports(i32 noundef 2) #6
  %.not1 = icmp eq i32 %6, 0
  br i1 %.not1, label %8, label %7

7:                                                ; preds = %5
  store ptr @crc32_sse42_pclmul_update, ptr @crc32_x86_simd_ptr, align 8
  br label %8

8:                                                ; preds = %7, %5, %2
  ret i32 0
}